ccopy_reg
_reconstructor
p0
(csklearn.preprocessing.data
StandardScaler
p1
c__builtin__
object
p2
Ntp3
Rp4
(dp5
S'mean_'
p6
cnumpy.core.multiarray
_reconstruct
p7
(cnumpy
ndarray
p8
(I0
tp9
S'b'
p10
tp11
Rp12
(I1
(I4
tp13
cnumpy
dtype
p14
(S'f8'
p15
I0
I1
tp16
Rp17
(I3
S'<'
p18
NNNI-1
I-1
I0
tp19
bI00
S'\x0b\xb4\xcf \x8c\xbb\xde?\x18}\xf5n\xa0\x1c\xd0?o\x12\x83\xc0\xca\x99`@d(/d&+G?'
p20
tp21
bsS'with_mean'
p22
I01
sS'var_'
p23
g7
(g8
(I0
tp24
g10
tp25
Rp26
(I1
(I4
tp27
g17
I00
S'\x05\x0e\xee\xe8]m|?\x10\xb6\x98y\x87\xa2K?\xacr\xa1\xf2\xaf\xd1T@\xe7V\xd0r7\x9b\xa9>'
p28
tp29
bsS'scale_'
p30
g7
(g8
(I0
tp31
g10
tp32
Rp33
(I1
(I4
tp34
g17
I00
S'1\x14\x98\xd1\xadS\xb5?\x8dpC\xc3\xc9\xbc\x9d?\xfe\x05\x14 M@"@[\xdaE\x1b\r\xa0L?'
p35
tp36
bsS'with_std'
p37
I01
sS'n_samples_seen_'
p38
I500
sS'_sklearn_version'
p39
S'0.19.1'
p40
sS'copy'
p41
I01
sb.